target datalayout = "e-m:e-p270:32:32-p271:32:32-p272:64:64-i64:64-i128:128-f80:128-n8:16:32:64-S128"
target triple = "x86_64-pc-linux-gnu"

%struct._zend_refcounted = type { %struct._zend_refcounted_h }
%struct._zend_refcounted_h = type { i32, %union.anon }
%union.anon = type { i32 }
%struct._zval_struct = type { %union._zend_value, %union.anon.0, %union.anon.3 }
%union._zend_value = type { i64 }
%union.anon.0 = type { i32 }
%union.anon.3 = type { i32 }
%struct.anon.1 = type { i8, i8, %union.anon.2 }
%union.anon.2 = type { i16 }
%struct._zend_reference = type { %struct._zend_refcounted_h, %struct._zval_struct, %union.zend_property_info_source_list }
%union.zend_property_info_source_list = type { ptr }

; Function Attrs: nounwind uwtable
define void @rc_dtor_func(ptr noundef %0) #0 {
  %2 = alloca i32, align 4
  %3 = alloca ptr, align 8
  store ptr %0, ptr %3, align 8
  %4 = load ptr, ptr %3, align 8
  %5 = getelementptr inbounds %struct._zend_refcounted, ptr %4, i32 0, i32 0
  %6 = getelementptr inbounds %struct._zend_refcounted_h, ptr %5, i32 0, i32 1
  %7 = load i32, ptr %6, align 4
  store i32 %7, ptr %2, align 4
  %8 = load i32, ptr %2, align 4
  %9 = and i32 %8, 15
  %10 = trunc i32 %9 to i8
  %11 = zext i8 %10 to i64
  %12 = getelementptr inbounds [12 x ptr], ptr @zend_rc_dtor_func, i64 0, i64 %11
  %13 = load ptr, ptr %12, align 8
  %14 = load ptr, ptr %3, align 8
  call void %13(ptr noundef %14)
  ret void
}

; Function Attrs: nounwind uwtable
define void @zval_ptr_dtor(ptr noundef %0) #0 {
  %2 = alloca ptr, align 8
  %3 = alloca ptr, align 8
  %4 = alloca ptr, align 8
  %5 = alloca ptr, align 8
  %6 = alloca ptr, align 8
  %7 = alloca ptr, align 8
  store ptr %0, ptr %7, align 8
  %8 = load ptr, ptr %7, align 8
  store ptr %8, ptr %5, align 8
  %9 = load ptr, ptr %5, align 8
  %10 = getelementptr inbounds %struct._zval_struct, ptr %9, i32 0, i32 1
  %11 = getelementptr inbounds %struct.anon.1, ptr %10, i32 0, i32 1
  %12 = load i8, ptr %11, align 1
  %13 = zext i8 %12 to i32
  %14 = icmp ne i32 %13, 0
  br i1 %14, label %15, label %58

15:                                               ; preds = %1
  %16 = load ptr, ptr %5, align 8
  %17 = load ptr, ptr %16, align 8
  store ptr %17, ptr %6, align 8
  %18 = load ptr, ptr %6, align 8
  store ptr %18, ptr %4, align 8
  %19 = load ptr, ptr %4, align 8
  %20 = load i32, ptr %19, align 4
  %21 = icmp ugt i32 %20, 0
  call void @llvm.assume(i1 %21)
  %22 = load ptr, ptr %4, align 8
  %23 = load i32, ptr %22, align 4
  %24 = add i32 %23, -1
  store i32 %24, ptr %22, align 4
  %25 = icmp ne i32 %24, 0
  br i1 %25, label %28, label %26

26:                                               ; preds = %15
  %27 = load ptr, ptr %6, align 8
  call void @rc_dtor_func(ptr noundef %27)
  br label %57

28:                                               ; preds = %15
  %29 = load ptr, ptr %6, align 8
  store ptr %29, ptr %2, align 8
  %30 = load ptr, ptr %2, align 8
  %31 = getelementptr inbounds %struct._zend_refcounted_h, ptr %30, i32 0, i32 1
  %32 = load i32, ptr %31, align 4
  %33 = icmp eq i32 %32, 26
  br i1 %33, label %34, label %48

34:                                               ; preds = %28
  %35 = load ptr, ptr %2, align 8
  %36 = getelementptr inbounds %struct._zend_reference, ptr %35, i32 0, i32 1
  store ptr %36, ptr %3, align 8
  %37 = load ptr, ptr %3, align 8
  %38 = getelementptr inbounds %struct._zval_struct, ptr %37, i32 0, i32 1
  %39 = getelementptr inbounds %struct.anon.1, ptr %38, i32 0, i32 1
  %40 = load i8, ptr %39, align 1
  %41 = zext i8 %40 to i32
  %42 = and i32 %41, 2
  %43 = icmp ne i32 %42, 0
  br i1 %43, label %45, label %44

44:                                               ; preds = %34
  br label %56

45:                                               ; preds = %34
  %46 = load ptr, ptr %3, align 8
  %47 = load ptr, ptr %46, align 8
  store ptr %47, ptr %2, align 8
  br label %48

48:                                               ; preds = %45, %28
  %49 = load ptr, ptr %2, align 8
  %50 = getelementptr inbounds %struct._zend_refcounted_h, ptr %49, i32 0, i32 1
  %51 = load i32, ptr %50, align 4
  %52 = and i32 %51, -1008
  %53 = icmp eq i32 %52, 0
  br i1 %53, label %54, label %56

54:                                               ; preds = %48
  %55 = load ptr, ptr %2, align 8
  call void @gc_possible_root(ptr noundef %55) #8
  br label %56

56:                                               ; preds = %54, %48, %44
  br label %57

57:                                               ; preds = %56, %26
  br label %58

58:                                               ; preds = %57, %1
  ret void
}