; Function Attrs: nounwind uwtable
define void @zval_ptr_dtor(ptr nocapture noundef readonly %0) local_unnamed_addr #0 {
  %2 = getelementptr inbounds i8, ptr %0, i64 9
  %3 = load i8, ptr %2, align 1
  %.not = icmp eq i8 %3, 0
  br i1 %.not, label %30, label %4

4:                                                ; preds = %1
  %5 = load ptr, ptr %0, align 8
  %6 = load i32, ptr %5, align 4
  %7 = icmp ne i32 %6, 0
  tail call void @llvm.assume(i1 %7)
  %8 = add i32 %6, -1
  store i32 %8, ptr %5, align 4
  %.not14 = icmp eq i32 %8, 0
  %9 = getelementptr inbounds i8, ptr %5, i64 4
  %10 = load i32, ptr %9, align 4
  br i1 %.not14, label %11, label %16

11:                                               ; preds = %4
  %12 = and i32 %10, 15
  %13 = zext nneg i32 %12 to i64
  %14 = getelementptr inbounds [12 x ptr], ptr @zend_rc_dtor_func, i64 0, i64 %13
  %15 = load ptr, ptr %14, align 8
  tail call void %15(ptr noundef nonnull %5) #9
  br label %30

16:                                               ; preds = %4
  %17 = icmp eq i32 %10, 26
  br i1 %17, label %18, label %25

18:                                               ; preds = %16
  %19 = getelementptr inbounds i8, ptr %5, i64 17
  %20 = load i8, ptr %19, align 1
  %21 = and i8 %20, 2
  %.not15 = icmp eq i8 %21, 0
  br i1 %.not15, label %30, label %22

22:                                               ; preds = %18
  %23 = getelementptr inbounds i8, ptr %5, i64 8
  %24 = load ptr, ptr %23, align 8
  %.phi.trans.insert = getelementptr inbounds i8, ptr %24, i64 4
  %.pre = load i32, ptr %.phi.trans.insert, align 4
  br label %25

25:                                               ; preds = %22, %16
  %26 = phi i32 [ %.pre, %22 ], [ %10, %16 ]
  %.0 = phi ptr [ %24, %22 ], [ %5, %16 ]
  %27 = and i32 %26, -1008
  %28 = icmp eq i32 %27, 0
  br i1 %28, label %29, label %30

29:                                               ; preds = %25
  tail call void @gc_possible_root(ptr noundef nonnull %.0) #9
  br label %30

30:                                               ; preds = %11, %18, %29, %25, %1
  ret void
}